target datalayout = "e-m:e-p270:32:32-p271:32:32-p272:64:64-i64:64-i128:128-f80:128-n8:16:32:64-S128"
target triple = "x86_64-pc-linux-gnu"

%struct._value_string_ext = type { ptr, i32, i32, ptr, ptr }
%struct._packet_info = type { ptr, ptr, i32, i32, %struct.nstime_t, %struct.nstime_t, %struct.nstime_t, i8, ptr, ptr, ptr, ptr, %struct._address, %struct._address, %struct._address, %struct._address, %struct._address, %struct._address, i32, ptr, i8, [3 x i8], %struct.anon, i32, i32, i32, i32, ptr, i8, ptr, ptr, i16, i16, i32, i32, i16, i32, i32, ptr, ptr, ptr, i8, i8, i16, i16, i16, i32, i16, i16, ptr, ptr, ptr, ptr, ptr, i32, i32 }
%struct.nstime_t = type { i64, i32 }
%struct._address = type { i32, i32, ptr, ptr }
%struct.anon = type { i8, [3 x i8] }

@mqttsn_msgtype_vals_ext = internal global %struct._value_string_ext { ptr @_try_val_to_str_ext_init, i32 0, i32 31, ptr @mqttsn_msgtype_vals, ptr @.str.57 }, align 8
@.str.54 = private unnamed_addr constant [8 x i8] c"MQTT-SN\00", align 1
@.str.103 = private unnamed_addr constant [17 x i8] c"Unknown (0x%02x)\00", align 1

; Function Attrs: null_pointer_is_valid sspstrong uwtable
define internal i32 @dissect_mqttsn(ptr noundef %0, ptr noundef %1, ptr noundef %2, ptr noundef %3) #0 {
  %5 = alloca ptr, align 8
  %6 = alloca ptr, align 8
  %7 = alloca ptr, align 8
  %8 = alloca ptr, align 8
  %9 = alloca i32, align 4
  %10 = alloca i8, align 1
  store ptr %0, ptr %5, align 8
  store ptr %1, ptr %6, align 8
  store ptr %2, ptr %7, align 8
  store ptr %3, ptr %8, align 8
  call void @llvm.lifetime.start.p0(i64 4, ptr %9) #3
  store i32 0, ptr %9, align 4
  call void @llvm.lifetime.start.p0(i64 1, ptr %10) #3
  %11 = load ptr, ptr %5, align 8
  %12 = call zeroext i8 @tvb_get_uint8(ptr noundef %11, i32 noundef 0)
  %13 = zext i8 %12 to i32
  %14 = icmp ne i32 %13, 1
  br i1 %14, label %15, label %18

15:                                               ; preds = %4
  %16 = load ptr, ptr %5, align 8
  %17 = call zeroext i8 @tvb_get_uint8(ptr noundef %16, i32 noundef 1)
  store i8 %17, ptr %10, align 1
  br label %21

18:                                               ; preds = %4
  %19 = load ptr, ptr %5, align 8
  %20 = call zeroext i8 @tvb_get_uint8(ptr noundef %19, i32 noundef 3)
  store i8 %20, ptr %10, align 1
  br label %21

21:                                               ; preds = %18, %15
  %22 = load ptr, ptr %6, align 8
  %23 = getelementptr inbounds nuw %struct._packet_info, ptr %22, i32 0, i32 1
  %24 = load ptr, ptr %23, align 8
  call void @col_set_str(ptr noundef %24, i32 noundef 35, ptr noundef @.str.54)
  %25 = load ptr, ptr %6, align 8
  %26 = getelementptr inbounds nuw %struct._packet_info, ptr %25, i32 0, i32 1
  %27 = load ptr, ptr %26, align 8
  call void @col_clear(ptr noundef %27, i32 noundef 25)
  %28 = load ptr, ptr %6, align 8
  %29 = getelementptr inbounds nuw %struct._packet_info, ptr %28, i32 0, i32 1
  %30 = load ptr, ptr %29, align 8
  %31 = load i8, ptr %10, align 1
  %32 = zext i8 %31 to i32
  %33 = call ptr @val_to_str_ext(i32 noundef %32, ptr noundef @mqttsn_msgtype_vals_ext, ptr noundef @.str.103)
  call void @col_add_str(ptr noundef %30, i32 noundef 25, ptr noundef %33)
  %34 = load ptr, ptr %5, align 8
  %35 = load ptr, ptr %6, align 8
  %36 = load ptr, ptr %7, align 8
  %37 = load i32, ptr %9, align 4
  call void @dissect_mqttsn_packet(ptr noundef %34, ptr noundef %35, ptr noundef %36, i32 noundef %37)
  %38 = load ptr, ptr %5, align 8
  %39 = call i32 @tvb_captured_length(ptr noundef %38)
  call void @llvm.lifetime.end.p0(i64 1, ptr %10) #3
  call void @llvm.lifetime.end.p0(i64 4, ptr %9) #3
  ret i32 %39
}