; Function Attrs: null_pointer_is_valid sspstrong uwtable
define internal i32 @dissect_mqttsn(ptr noundef %0, ptr noundef %1, ptr noundef %2, ptr readnone captures(none) %3) #0 {
  %5 = tail call zeroext i8 @tvb_get_uint8(ptr noundef %0, i32 noundef 0)
  %.not = icmp eq i8 %5, 1
  %. = select i1 %.not, i32 3, i32 1
  %6 = tail call zeroext i8 @tvb_get_uint8(ptr noundef %0, i32 noundef %.)
  %7 = getelementptr inbounds nuw i8, ptr %1, i64 8
  %8 = load ptr, ptr %7, align 8
  tail call void @col_set_str(ptr noundef %8, i32 noundef 35, ptr noundef nonnull @.str.54)
  %9 = load ptr, ptr %7, align 8
  tail call void @col_clear(ptr noundef %9, i32 noundef 25)
  %10 = load ptr, ptr %7, align 8
  %11 = zext i8 %6 to i32
  %12 = tail call ptr @val_to_str_ext(i32 noundef %11, ptr noundef nonnull @mqttsn_msgtype_vals_ext, ptr noundef nonnull @.str.103)
  tail call void @col_add_str(ptr noundef %10, i32 noundef 25, ptr noundef %12)
  tail call fastcc void @dissect_mqttsn_packet(ptr noundef %0, ptr noundef %1, ptr noundef %2, i32 noundef 0)
  %13 = tail call i32 @tvb_captured_length(ptr noundef %0)
  ret i32 %13
}